(dp1
S'output'
p2
S"<type 'exceptions.NameError'> name 'i' is not defined"
p3
sS'layer'
p4
S'/home/pearlstud/web2py/applications/NotesKeeper3/views/default/my_notes.html'
p5
sS'code'
p6
S'response.write(\'<!DOCTYPE HTML>\\r\\n<html>\\r\\n\\t<head>\\r\\n\\t\\t<title>My Notes</title>\\r\\n\\t\\t<meta http-equiv="content-type" content="text/html; charset=utf-8" />\\r\\n\\t\\t<meta name="description" content="" />\\r\\n\\t\\t<meta name="keywords" content="" />\\r\\n\\t\\t<script src="js/jquery.min.js"></script>\\r\\n\\t\\t<script src="js/jquery.dropotron.min.js"></script>\\r\\n\\t\\t<script src="js/skel.min.js"></script>\\r\\n\\t\\t<script src="js/skel-layers.min.js"></script>\\r\\n\\t\\t<script src="js/init.js"></script>\\r\\n\\t\\t<noscript>\\r\\n\\t\\t\\t<link rel="stylesheet" href="css/skel.css" />\\r\\n\\t\\t\\t<link rel="stylesheet" href="css/style.css" />\\r\\n\\t\\t\\t<link rel="stylesheet" href="css/style-wide.css" />\\r\\n\\t\\t</noscript>\\r\\n\\t</head>\\r\\n\\t<body>\\r\\n\\t\\t\\t<div class="wrapper style1">\\r\\n\\t\\t\\t\\t\\t<div id="header" class="skel-panels-fixed">\\r\\n\\t\\t\\t\\t\\t\\t<div id="logo">\\r\\n\\t\\t\\t\\t\\t\\t\\t<h1><a href="index.html">My Notes</a></h1>\\r\\n\\t\\t\\t\\t\\t\\t\\t<span class="tag">by NotesKeeper</span>\\r\\n\\t\\t\\t\\t\\t\\t</div>\\r\\n\\t\\t\\t\\t\\t\\t<nav id="nav">\\r\\n\\t\\t\\t\\t\\t\\t\\t<ul>\\r\\n\\t\\t\\t\\t\\t\\t\\t\\t<li class="active"><a href="index.html">Homepage</a></li>\\r\\n\\t\\t\\t\\t\\t\\t\\t\\t<li><a href="#">IDK</a></li>\\r\\n\\t\\t\\t\\t\\t\\t\\t\\t<li><a href="#">IDK</a></li>\\r\\n\\t\\t\\t\\t\\t\\t\\t\\t<li><a href="#">IDK</a></li>\\r\\n\\t\\t\\t\\t\\t\\t\\t</ul>\\r\\n\\t\\t\\t\\t\\t\\t</nav>\\r\\n\\t\\t\\t\\t\\t</div>\\r\\n\\t\\t\\t\\t\\t<div id="banner" class="container">\\r\\n\\t\\t\\t\\t\\t\\t<section>\\r\\n\\t\\t\\t\\t\\t\\t\\t<p>This is <strong>My Notes</strong>, section. More text needed.</p>\\r\\n\\t\\t\\t\\t\\t\\t</section>\\r\\n\\t\\t\\t\\t\\t</div>\\r\\n\\t\\t\\t\\t\\t<div id="extra">\\r\\n\\t\\t\\t\\t\\t\\t<div class="container">\\r\\n\\t\\t\\t\\t\\t\\t\\t<div class="row no-collapse-1">\\r\\n\\t\\t\\t\\t\\t\\t\\t\\t\', escape=False)\nfor nt in notes:\n    response.write(\'\\r\\n\\t\\t\\t\\t\\t\\t\\t\\t<section class="4u"> <a href="#" class="image featured"><img src="images/pic0\', escape=False)\n    ++i\n    response.write(\'.jpg" alt=""></a>\\r\\n\\t\\t\\t\\t\\t\\t\\t\\t\\t<div class="box">\\r\\n\\t\\t\\t\\t\\t\\t\\t\\t\\t\\t<p>nt.title</p>\\r\\n\\t\\t\\t\\t\\t\\t\\t\\t\\t\\t<a href="\', escape=False)\n    response.write(URL(\'show_note\', args = nt.id))\n    response.write(\'" class="button">Read More</a> </div>\\r\\n\\t\\t\\t\\t\\t\\t\\t\\t</section>\\r\\n\\t\\t\\t\\t\\t\\t\\t\\t\', escape=False)\n    pass\nresponse.write(\'\\r\\n\\t\\t\\t\\t\\t\\t\\t</div>\\r\\n\\t\\t\\t\\t\\t\\t</div>\\r\\n\\t\\t\\t\\t\\t</div>\\r\\n\\t\\t\\t\\t</div>\\r\\n\\t\\t<div id="copyright">\\r\\n\\t\\t\\t<div class="container">\\r\\n\\t\\t\\t\\t<div class="copyright">\\r\\n\\t\\t\\t\\t\\t<p>Design: <a href="#">NotesKeeper</a> </p>\\r\\n\\t\\t\\t\\t\\t<ul class="icons">\\r\\n\\t\\t\\t\\t\\t\\t<li><a href="#" class="fa fa-facebook"><span>Facebook</span></a></li>\\r\\n\\t\\t\\t\\t\\t\\t<li><a href="#" class="fa fa-twitter"><span>Twitter</span></a></li>\\r\\n\\t\\t\\t\\t\\t\\t<li><a href="#" class="fa fa-google-plus"><span>Google+</span></a></li>\\r\\n\\t\\t\\t\\t\\t</ul>\\r\\n\\t\\t\\t\\t</div>\\r\\n\\t\\t\\t</div>\\r\\n\\t\\t</div>\\r\\n\\r\\n\\t</body>\\r\\n</html>\\r\\n\', escape=False)'
p7
sS'snapshot'
p8
(dp9
S'exception'
p10
(dp11
S'__hash__'
p12
S"<method-wrapper '__hash__' of exceptions.NameError object>"
p13
sS'__setattr__'
p14
S"<method-wrapper '__setattr__' of exceptions.NameError object>"
p15
sS'__reduce_ex__'
p16
S'<built-in method __reduce_ex__ of exceptions.NameError object>'
p17
sS'__getslice__'
p18
S"<method-wrapper '__getslice__' of exceptions.NameError object>"
p19
sS'__getitem__'
p20
S"<method-wrapper '__getitem__' of exceptions.NameError object>"
p21
sS'__setstate__'
p22
S'<built-in method __setstate__ of exceptions.NameError object>'
p23
sS'args'
p24
S'("name \'i\' is not defined",)'
p25
sS'__reduce__'
p26
S'<built-in method __reduce__ of exceptions.NameError object>'
p27
sS'__str__'
p28
S"<method-wrapper '__str__' of exceptions.NameError object>"
p29
sS'__format__'
p30
S'<built-in method __format__ of exceptions.NameError object>'
p31
sS'__getattribute__'
p32
S"<method-wrapper '__getattribute__' of exceptions.NameError object>"
p33
sS'__class__'
p34
S"<type 'exceptions.NameError'>"
p35
sS'__unicode__'
p36
S'<built-in method __unicode__ of exceptions.NameError object>'
p37
sS'__delattr__'
p38
S"<method-wrapper '__delattr__' of exceptions.NameError object>"
p39
sS'__subclasshook__'
p40
S'<built-in method __subclasshook__ of type object>'
p41
sS'__repr__'
p42
S"<method-wrapper '__repr__' of exceptions.NameError object>"
p43
sS'__dict__'
p44
S'{}'
p45
sS'__sizeof__'
p46
S'<built-in method __sizeof__ of exceptions.NameError object>'
p47
sS'__doc__'
p48
S"'Name not found globally.'"
p49
sS'__init__'
p50
S"<method-wrapper '__init__' of exceptions.NameError object>"
p51
sS'__new__'
p52
S'<built-in method __new__ of type object>'
p53
ssS'evalue'
p54
S"name 'i' is not defined"
p55
sS'request'
p56
cgluon.html
XML_unpickle
p57
(S'sd`\x00\x00<div><table><tr><td style="font-weight:bold;vertical-align:top;">ajax</td><td style="vertical-align:top;">:</td><td><div>False</div></td></tr><tr><td style="font-weight:bold;vertical-align:top;">application</td><td style="vertical-align:top;">:</td><td><div>NotesKeeper3</div></td></tr><tr><td style="font-weight:bold;vertical-align:top;">args</td><td style="vertical-align:top;">:</td><td><div><table></table></div></td></tr><tr><td style="font-weight:bold;vertical-align:top;">cid</td><td style="vertical-align:top;">:</td><td><div>None</div></td></tr><tr><td style="font-weight:bold;vertical-align:top;">client</td><td style="vertical-align:top;">:</td><td><div>127.0.0.1</div></td></tr><tr><td style="font-weight:bold;vertical-align:top;">controller</td><td style="vertical-align:top;">:</td><td><div>default</div></td></tr><tr><td style="font-weight:bold;vertical-align:top;">cookies</td><td style="vertical-align:top;">:</td><td><div><table><tr><td style="font-weight:bold;vertical-align:top;">session_id_admin</td><td style="vertical-align:top;">:</td><td><div>127.0.0.1-88294f0d-112a-48c3-b939-761c78abe867<table><tr><td style="font-weight:bold;vertical-align:top;">comment</td><td style="vertical-align:top;">:</td><td><div></div></td></tr><tr><td style="font-weight:bold;vertical-align:top;">domain</td><td style="vertical-align:top;">:</td><td><div></div></td></tr><tr><td style="font-weight:bold;vertical-align:top;">expires</td><td style="vertical-align:top;">:</td><td><div></div></td></tr><tr><td style="font-weight:bold;vertical-align:top;">httponly</td><td style="vertical-align:top;">:</td><td><div></div></td></tr><tr><td style="font-weight:bold;vertical-align:top;">max-age</td><td style="vertical-align:top;">:</td><td><div></div></td></tr><tr><td style="font-weight:bold;vertical-align:top;">path</td><td style="vertical-align:top;">:</td><td><div></div></td></tr><tr><td style="font-weight:bold;vertical-align:top;">secure</td><td style="vertical-align:top;">:</td><td><div></div></td></tr><tr><td style="font-weight:bold;vertical-align:top;">version</td><td style="vertical-align:top;">:</td><td><div></div></td></tr></table></div></td></tr><tr><td style="font-weight:bold;vertical-align:top;">session_id_gantiapp</td><td style="vertical-align:top;">:</td><td><div>127.0.0.1-f87836b4-e674-4ade-a1f7-0ea96150d56a<table><tr><td style="font-weight:bold;vertical-align:top;">comment</td><td style="vertical-align:top;">:</td><td><div></div></td></tr><tr><td style="font-weight:bold;vertical-align:top;">domain</td><td style="vertical-align:top;">:</td><td><div></div></td></tr><tr><td style="font-weight:bold;vertical-align:top;">expires</td><td style="vertical-align:top;">:</td><td><div></div></td></tr><tr><td style="font-weight:bold;vertical-align:top;">httponly</td><td style="vertical-align:top;">:</td><td><div></div></td></tr><tr><td style="font-weight:bold;vertical-align:top;">max-age</td><td style="vertical-align:top;">:</td><td><div></div></td></tr><tr><td style="font-weight:bold;vertical-align:top;">path</td><td style="vertical-align:top;">:</td><td><div></div></td></tr><tr><td style="font-weight:bold;vertical-align:top;">secure</td><td style="vertical-align:top;">:</td><td><div></div></td></tr><tr><td style="font-weight:bold;vertical-align:top;">version</td><td style="vertical-align:top;">:</td><td><div></div></td></tr></table></div></td></tr><tr><td style="font-weight:bold;vertical-align:top;">session_id_noteskeeper3</td><td style="vertical-align:top;">:</td><td><div>127.0.0.1-a43521c3-9dcb-419a-b495-9bfee828f2fe<table><tr><td style="font-weight:bold;vertical-align:top;">comment</td><td style="vertical-align:top;">:</td><td><div></div></td></tr><tr><td style="font-weight:bold;vertical-align:top;">domain</td><td style="vertical-align:top;">:</td><td><div></div></td></tr><tr><td style="font-weight:bold;vertical-align:top;">expires</td><td style="vertical-align:top;">:</td><td><div></div></td></tr><tr><td style="font-weight:bold;vertical-align:top;">httponly</td><td style="vertical-align:top;">:</td><td><div></div></td></tr><tr><td style="font-weight:bold;vertical-align:top;">max-age</td><td style="vertical-align:top;">:</td><td><div></div></td></tr><tr><td style="font-weight:bold;vertical-align:top;">path</td><td style="vertical-align:top;">:</td><td><div></div></td></tr><tr><td style="font-weight:bold;vertical-align:top;">secure</td><td style="vertical-align:top;">:</td><td><div></div></td></tr><tr><td style="font-weight:bold;vertical-align:top;">version</td><td style="vertical-align:top;">:</td><td><div></div></td></tr></table></div></td></tr><tr><td style="font-weight:bold;vertical-align:top;">session_id_welcome</td><td style="vertical-align:top;">:</td><td><div>127.0.0.1-3df8cfdb-8962-4a36-ba3e-548d0e01a987<table><tr><td style="font-weight:bold;vertical-align:top;">comment</td><td style="vertical-align:top;">:</td><td><div></div></td></tr><tr><td style="font-weight:bold;vertical-align:top;">domain</td><td style="vertical-align:top;">:</td><td><div></div></td></tr><tr><td style="font-weight:bold;vertical-align:top;">expires</td><td style="vertical-align:top;">:</td><td><div></div></td></tr><tr><td style="font-weight:bold;vertical-align:top;">httponly</td><td style="vertical-align:top;">:</td><td><div></div></td></tr><tr><td style="font-weight:bold;vertical-align:top;">max-age</td><td style="vertical-align:top;">:</td><td><div></div></td></tr><tr><td style="font-weight:bold;vertical-align:top;">path</td><td style="vertical-align:top;">:</td><td><div></div></td></tr><tr><td style="font-weight:bold;vertical-align:top;">secure</td><td style="vertical-align:top;">:</td><td><div></div></td></tr><tr><td style="font-weight:bold;vertical-align:top;">version</td><td style="vertical-align:top;">:</td><td><div></div></td></tr></table></div></td></tr></table></div></td></tr><tr><td style="font-weight:bold;vertical-align:top;">env</td><td style="vertical-align:top;">:</td><td><div><table><tr><td style="font-weight:bold;vertical-align:top;">HTTP_ACCEPT</td><td style="vertical-align:top;">:</td><td><div>text/html,application/xhtml+xml,application/xml;q=0.9,*/*;q=0.8</div></td></tr><tr><td style="font-weight:bold;vertical-align:top;">HTTP_ACCEPT_ENCODING</td><td style="vertical-align:top;">:</td><td><div>gzip, deflate</div></td></tr><tr><td style="font-weight:bold;vertical-align:top;">HTTP_ACCEPT_LANGUAGE</td><td style="vertical-align:top;">:</td><td><div>en-US,en;q=0.5</div></td></tr><tr><td style="font-weight:bold;vertical-align:top;">HTTP_CACHE_CONTROL</td><td style="vertical-align:top;">:</td><td><div>max-age=0</div></td></tr><tr><td style="font-weight:bold;vertical-align:top;">HTTP_CONNECTION</td><td style="vertical-align:top;">:</td><td><div>keep-alive</div></td></tr><tr><td style="font-weight:bold;vertical-align:top;">HTTP_COOKIE</td><td style="vertical-align:top;">:</td><td><div>session_id_welcome=127.0.0.1-3df8cfdb-8962-4a36-ba3e-548d0e01a987; session_id_admin=127.0.0.1-88294f0d-112a-48c3-b939-761c78abe867; session_id_noteskeeper3=127.0.0.1-a43521c3-9dcb-419a-b495-9bfee828f2fe; session_id_gantiapp=127.0.0.1-f87836b4-e674-4ade-a1f7-0ea96150d56a</div></td></tr><tr><td style="font-weight:bold;vertical-align:top;">HTTP_HOST</td><td style="vertical-align:top;">:</td><td><div>127.0.0.1:8000</div></td></tr><tr><td style="font-weight:bold;vertical-align:top;">HTTP_REFERER</td><td style="vertical-align:top;">:</td><td><div>http://127.0.0.1:8000/NotesKeeper3/default/index</div></td></tr><tr><td style="font-weight:bold;vertical-align:top;">HTTP_USER_AGENT</td><td style="vertical-align:top;">:</td><td><div>Mozilla/5.0 (X11; Ubuntu; Linux x86_64; rv:45.0) Gecko/20100101 Firefox/45.0</div></td></tr><tr><td style="font-weight:bold;vertical-align:top;">PATH_INFO</td><td style="vertical-align:top;">:</td><td><div>/NotesKeeper3/default/my_notes</div></td></tr><tr><td style="font-weight:bold;vertical-align:top;">QUERY_STRING</td><td style="vertical-align:top;">:</td><td><div></div></td></tr><tr><td style="font-weight:bold;vertical-align:top;">REMOTE_ADDR</td><td style="vertical-align:top;">:</td><td><div>127.0.0.1</div></td></tr><tr><td style="font-weight:bold;vertical-align:top;">REMOTE_PORT</td><td style="vertical-align:top;">:</td><td><div>33876</div></td></tr><tr><td style="font-weight:bold;vertical-align:top;">REQUEST_METHOD</td><td style="vertical-align:top;">:</td><td><div>GET</div></td></tr><tr><td style="font-weight:bold;vertical-align:top;">SCRIPT_NAME</td><td style="vertical-align:top;">:</td><td><div></div></td></tr><tr><td style="font-weight:bold;vertical-align:top;">SERVER_NAME</td><td style="vertical-align:top;">:</td><td><div>blackPearl</div></td></tr><tr><td style="font-weight:bold;vertical-align:top;">SERVER_PORT</td><td style="vertical-align:top;">:</td><td><div>8000</div></td></tr><tr><td style="font-weight:bold;vertical-align:top;">SERVER_PROTOCOL</td><td style="vertical-align:top;">:</td><td><div>HTTP/1.1</div></td></tr><tr><td style="font-weight:bold;vertical-align:top;">SERVER_SOFTWARE</td><td style="vertical-align:top;">:</td><td><div>Rocket 1.2.6</div></td></tr><tr><td style="font-weight:bold;vertical-align:top;">app_folders</td><td style="vertical-align:top;">:</td><td><div>set([&#x27;/home/pearlstud/web2py/applications/admin/&#x27;, &#x27;/home/pearlstud/web2py/applications/NotesKeeper3/&#x27;, &#x27;/home/pearlstud/web2py/applications/welcome/&#x27;])</div></td></tr><tr><td style="font-weight:bold;vertical-align:top;">applications_parent</td><td style="vertical-align:top;">:</td><td><div>/home/pearlstud/web2py</div></td></tr><tr><td style="font-weight:bold;vertical-align:top;">cmd_args</td><td style="vertical-align:top;">:</td><td><div><table></table></div></td></tr><tr><td style="font-weight:bold;vertical-align:top;">cmd_options</td><td style="vertical-align:top;">:</td><td><div>&lt;Values at 0x7f1fb6c90050: {&#x27;verbose&#x27;: False, &#x27;ip&#x27;: &#x27;127.0.0.1&#x27;, &#x27;debuglevel&#x27;: 30, &#x27;with_scheduler&#x27;: False, &#x27;shutdown_timeout&#x27;: 5, &#x27;taskbar&#x27;: False, &#x27;with_coverage&#x27;: False, &#x27;pid_filename&#x27;: &#x27;httpserver.pid&#x27;, &#x27;maxthreads&#x27;: None, &#x27;softcron&#x27;: False, &#x27;server_name&#x27;: &#x27;blackPearl&#x27;, &#x27;bpython&#x27;: False, &#x27;nogui&#x27;: False, &#x27;port&#x27;: 8000, &#x27;print_errors&#x27;: False, &#x27;extcron&#x27;: False, &#x27;runcron&#x27;: False, &#x27;run_system_tests&#x27;: False, &#x27;test&#x27;: None, &#x27;folder&#x27;: &#x27;/home/pearlstud/web2py&#x27;, &#x27;config&#x27;: &#x27;&#x27;, &#x27;minthreads&#x27;: None, &#x27;shell&#x27;: None, &#x27;run&#x27;: &#x27;&#x27;, &#x27;log_filename&#x27;: &#x27;httpserver.log&#x27;, &#x27;profiler_dir&#x27;: None, &#x27;args&#x27;: [&#x27;&#x27;], &#x27;socket_timeout&#x27;: 5, &#x27;ssl_ca_certificate&#x27;: None, &#x27;scheduler&#x27;: None, &#x27;interfaces&#x27;: None, &#x27;ssl_private_key&#x27;: &#x27;&#x27;, &#x27;gae&#x27;: None, &#x27;password&#x27;: &#x27;******&#x27;, &#x27;request_queue_size&#x27;: 5, &#x27;ssl_certificate&#x27;: &#x27;&#x27;, &#x27;cronjob&#x27;: False, &#x27;numthreads&#x27;: None, &#x27;quiet&#x27;: False, &#x27;import_models&#x27;: False, &#x27;timeout&#x27;: 10, &#x27;plain&#x27;: False, &#x27;nobanner&#x27;: False}&gt;</div></td></tr><tr><td style="font-weight:bold;vertical-align:top;">db_sessions</td><td style="vertical-align:top;">:</td><td><div>set([])</div></td></tr><tr><td style="font-weight:bold;vertical-align:top;">debugging</td><td style="vertical-align:top;">:</td><td><div>False</div></td></tr><tr><td style="font-weight:bold;vertical-align:top;">gluon_parent</td><td style="vertical-align:top;">:</td><td><div>/home/pearlstud/web2py</div></td></tr><tr><td style="font-weight:bold;vertical-align:top;">http_accept</td><td style="vertical-align:top;">:</td><td><div>text/html,application/xhtml+xml,application/xml;q=0.9,*/*;q=0.8</div></td></tr><tr><td style="font-weight:bold;vertical-align:top;">http_accept_encoding</td><td style="vertical-align:top;">:</td><td><div>gzip, deflate</div></td></tr><tr><td style="font-weight:bold;vertical-align:top;">http_accept_language</td><td style="vertical-align:top;">:</td><td><div>en-US,en;q=0.5</div></td></tr><tr><td style="font-weight:bold;vertical-align:top;">http_cache_control</td><td style="vertical-align:top;">:</td><td><div>max-age=0</div></td></tr><tr><td style="font-weight:bold;vertical-align:top;">http_connection</td><td style="vertical-align:top;">:</td><td><div>keep-alive</div></td></tr><tr><td style="font-weight:bold;vertical-align:top;">http_cookie</td><td style="vertical-align:top;">:</td><td><div>session_id_welcome=127.0.0.1-3df8cfdb-8962-4a36-ba3e-548d0e01a987; session_id_admin=127.0.0.1-88294f0d-112a-48c3-b939-761c78abe867; session_id_noteskeeper3=127.0.0.1-a43521c3-9dcb-419a-b495-9bfee828f2fe; session_id_gantiapp=127.0.0.1-f87836b4-e674-4ade-a1f7-0ea96150d56a</div></td></tr><tr><td style="font-weight:bold;vertical-align:top;">http_host</td><td style="vertical-align:top;">:</td><td><div>127.0.0.1:8000</div></td></tr><tr><td style="font-weight:bold;vertical-align:top;">http_referer</td><td style="vertical-align:top;">:</td><td><div>http://127.0.0.1:8000/NotesKeeper3/default/index</div></td></tr><tr><td style="font-weight:bold;vertical-align:top;">http_user_agent</td><td style="vertical-align:top;">:</td><td><div>Mozilla/5.0 (X11; Ubuntu; Linux x86_64; rv:45.0) Gecko/20100101 Firefox/45.0</div></td></tr><tr><td style="font-weight:bold;vertical-align:top;">is_jython</td><td style="vertical-align:top;">:</td><td><div>False</div></td></tr><tr><td style="font-weight:bold;vertical-align:top;">is_pypy</td><td style="vertical-align:top;">:</td><td><div>False</div></td></tr><tr><td style="font-weight:bold;vertical-align:top;">is_source</td><td style="vertical-align:top;">:</td><td><div>True</div></td></tr><tr><td style="font-weight:bold;vertical-align:top;">local_hosts</td><td style="vertical-align:top;">:</td><td><div><table><tr><td><div>blackPearl</div></td></tr><tr><td><div>::1</div></td></tr><tr><td><div>127.0.1.1</div></td></tr><tr><td><div>::ffff:127.0.0.1</div></td></tr><tr><td><div>127.0.0.1</div></td></tr></table></div></td></tr><tr><td style="font-weight:bold;vertical-align:top;">path_info</td><td style="vertical-align:top;">:</td><td><div>/NotesKeeper3/default/my_notes</div></td></tr><tr><td style="font-weight:bold;vertical-align:top;">query_string</td><td style="vertical-align:top;">:</td><td><div></div></td></tr><tr><td style="font-weight:bold;vertical-align:top;">remote_addr</td><td style="vertical-align:top;">:</td><td><div>127.0.0.1</div></td></tr><tr><td style="font-weight:bold;vertical-align:top;">remote_port</td><td style="vertical-align:top;">:</td><td><div>33876</div></td></tr><tr><td style="font-weight:bold;vertical-align:top;">request_method</td><td style="vertical-align:top;">:</td><td><div>GET</div></td></tr><tr><td style="font-weight:bold;vertical-align:top;">request_uri</td><td style="vertical-align:top;">:</td><td><div>/NotesKeeper3/default/my_notes</div></td></tr><tr><td style="font-weight:bold;vertical-align:top;">script_name</td><td style="vertical-align:top;">:</td><td><div></div></td></tr><tr><td style="font-weight:bold;vertical-align:top;">server_name</td><td style="vertical-align:top;">:</td><td><div>blackPearl</div></td></tr><tr><td style="font-weight:bold;vertical-align:top;">server_port</td><td style="vertical-align:top;">:</td><td><div>8000</div></td></tr><tr><td style="font-weight:bold;vertical-align:top;">server_protocol</td><td style="vertical-align:top;">:</td><td><div>HTTP/1.1</div></td></tr><tr><td style="font-weight:bold;vertical-align:top;">server_software</td><td style="vertical-align:top;">:</td><td><div>Rocket 1.2.6</div></td></tr><tr><td style="font-weight:bold;vertical-align:top;">web2py_path</td><td style="vertical-align:top;">:</td><td><div>/home/pearlstud/web2py</div></td></tr><tr><td style="font-weight:bold;vertical-align:top;">web2py_version</td><td style="vertical-align:top;">:</td><td><div>2.14.3-stable+timestamp.2016.03.26.23.02.02</div></td></tr><tr><td style="font-weight:bold;vertical-align:top;">wsgi.errors</td><td style="vertical-align:top;">:</td><td><div>&lt;open file &#x27;&lt;stderr&gt;&#x27;, mode &#x27;w&#x27; at 0x7f1fbbbd01e0&gt;</div></td></tr><tr><td style="font-weight:bold;vertical-align:top;">wsgi.file_wrapper</td><td style="vertical-align:top;">:</td><td><div>&lt;class wsgiref.util.FileWrapper at 0x7f1fb69049a8&gt;</div></td></tr><tr><td style="font-weight:bold;vertical-align:top;">wsgi.input</td><td style="vertical-align:top;">:</td><td><div>&lt;socket._fileobject object at 0x7f1f7aece8d0&gt;</div></td></tr><tr><td style="font-weight:bold;vertical-align:top;">wsgi.multiprocess</td><td style="vertical-align:top;">:</td><td><div>False</div></td></tr><tr><td style="font-weight:bold;vertical-align:top;">wsgi.multithread</td><td style="vertical-align:top;">:</td><td><div>True</div></td></tr><tr><td style="font-weight:bold;vertical-align:top;">wsgi.run_once</td><td style="vertical-align:top;">:</td><td><div>False</div></td></tr><tr><td style="font-weight:bold;vertical-align:top;">wsgi.url_scheme</td><td style="vertical-align:top;">:</td><td><div>http</div></td></tr><tr><td style="font-weight:bold;vertical-align:top;">wsgi.version</td><td style="vertical-align:top;">:</td><td><div><table><tr><td><div>1</div></td></tr><tr><td><div>0</div></td></tr></table></div></td></tr><tr><td style="font-weight:bold;vertical-align:top;">wsgi_errors</td><td style="vertical-align:top;">:</td><td><div>&lt;open file &#x27;&lt;stderr&gt;&#x27;, mode &#x27;w&#x27; at 0x7f1fbbbd01e0&gt;</div></td></tr><tr><td style="font-weight:bold;vertical-align:top;">wsgi_file_wrapper</td><td style="vertical-align:top;">:</td><td><div>&lt;class wsgiref.util.FileWrapper at 0x7f1fb69049a8&gt;</div></td></tr><tr><td style="font-weight:bold;vertical-align:top;">wsgi_input</td><td style="vertical-align:top;">:</td><td><div>&lt;socket._fileobject object at 0x7f1f7aece8d0&gt;</div></td></tr><tr><td style="font-weight:bold;vertical-align:top;">wsgi_multiprocess</td><td style="vertical-align:top;">:</td><td><div>False</div></td></tr><tr><td style="font-weight:bold;vertical-align:top;">wsgi_multithread</td><td style="vertical-align:top;">:</td><td><div>True</div></td></tr><tr><td style="font-weight:bold;vertical-align:top;">wsgi_run_once</td><td style="vertical-align:top;">:</td><td><div>False</div></td></tr><tr><td style="font-weight:bold;vertical-align:top;">wsgi_url_scheme</td><td style="vertical-align:top;">:</td><td><div>http</div></td></tr><tr><td style="font-weight:bold;vertical-align:top;">wsgi_version</td><td style="vertical-align:top;">:</td><td><div><table><tr><td><div>1</div></td></tr><tr><td><div>0</div></td></tr></table></div></td></tr></table></div></td></tr><tr><td style="font-weight:bold;vertical-align:top;">extension</td><td style="vertical-align:top;">:</td><td><div>html</div></td></tr><tr><td style="font-weight:bold;vertical-align:top;">folder</td><td style="vertical-align:top;">:</td><td><div>/home/pearlstud/web2py/applications/NotesKeeper3/</div></td></tr><tr><td style="font-weight:bold;vertical-align:top;">function</td><td style="vertical-align:top;">:</td><td><div>my_notes</div></td></tr><tr><td style="font-weight:bold;vertical-align:top;">global_settings</td><td style="vertical-align:top;">:</td><td><div><table><tr><td style="font-weight:bold;vertical-align:top;">app_folders</td><td style="vertical-align:top;">:</td><td><div>set([&#x27;/home/pearlstud/web2py/applications/admin/&#x27;, &#x27;/home/pearlstud/web2py/applications/NotesKeeper3/&#x27;, &#x27;/home/pearlstud/web2py/applications/welcome/&#x27;])</div></td></tr><tr><td style="font-weight:bold;vertical-align:top;">applications_parent</td><td style="vertical-align:top;">:</td><td><div>/home/pearlstud/web2py</div></td></tr><tr><td style="font-weight:bold;vertical-align:top;">cmd_args</td><td style="vertical-align:top;">:</td><td><div><table></table></div></td></tr><tr><td style="font-weight:bold;vertical-align:top;">cmd_options</td><td style="vertical-align:top;">:</td><td><div>&lt;Values at 0x7f1fb6c90050: {&#x27;verbose&#x27;: False, &#x27;ip&#x27;: &#x27;127.0.0.1&#x27;, &#x27;debuglevel&#x27;: 30, &#x27;with_scheduler&#x27;: False, &#x27;shutdown_timeout&#x27;: 5, &#x27;taskbar&#x27;: False, &#x27;with_coverage&#x27;: False, &#x27;pid_filename&#x27;: &#x27;httpserver.pid&#x27;, &#x27;maxthreads&#x27;: None, &#x27;softcron&#x27;: False, &#x27;server_name&#x27;: &#x27;blackPearl&#x27;, &#x27;bpython&#x27;: False, &#x27;nogui&#x27;: False, &#x27;port&#x27;: 8000, &#x27;print_errors&#x27;: False, &#x27;extcron&#x27;: False, &#x27;runcron&#x27;: False, &#x27;run_system_tests&#x27;: False, &#x27;test&#x27;: None, &#x27;folder&#x27;: &#x27;/home/pearlstud/web2py&#x27;, &#x27;config&#x27;: &#x27;&#x27;, &#x27;minthreads&#x27;: None, &#x27;shell&#x27;: None, &#x27;run&#x27;: &#x27;&#x27;, &#x27;log_filename&#x27;: &#x27;httpserver.log&#x27;, &#x27;profiler_dir&#x27;: None, &#x27;args&#x27;: [&#x27;&#x27;], &#x27;socket_timeout&#x27;: 5, &#x27;ssl_ca_certificate&#x27;: None, &#x27;scheduler&#x27;: None, &#x27;interfaces&#x27;: None, &#x27;ssl_private_key&#x27;: &#x27;&#x27;, &#x27;gae&#x27;: None, &#x27;password&#x27;: &#x27;******&#x27;, &#x27;request_queue_size&#x27;: 5, &#x27;ssl_certificate&#x27;: &#x27;&#x27;, &#x27;cronjob&#x27;: False, &#x27;numthreads&#x27;: None, &#x27;quiet&#x27;: False, &#x27;import_models&#x27;: False, &#x27;timeout&#x27;: 10, &#x27;plain&#x27;: False, &#x27;nobanner&#x27;: False}&gt;</div></td></tr><tr><td style="font-weight:bold;vertical-align:top;">db_sessions</td><td style="vertical-align:top;">:</td><td><div>set([])</div></td></tr><tr><td style="font-weight:bold;vertical-align:top;">debugging</td><td style="vertical-align:top;">:</td><td><div>False</div></td></tr><tr><td style="font-weight:bold;vertical-align:top;">gluon_parent</td><td style="vertical-align:top;">:</td><td><div>/home/pearlstud/web2py</div></td></tr><tr><td style="font-weight:bold;vertical-align:top;">is_jython</td><td style="vertical-align:top;">:</td><td><div>False</div></td></tr><tr><td style="font-weight:bold;vertical-align:top;">is_pypy</td><td style="vertical-align:top;">:</td><td><div>False</div></td></tr><tr><td style="font-weight:bold;vertical-align:top;">is_source</td><td style="vertical-align:top;">:</td><td><div>True</div></td></tr><tr><td style="font-weight:bold;vertical-align:top;">local_hosts</td><td style="vertical-align:top;">:</td><td><div><table><tr><td><div>blackPearl</div></td></tr><tr><td><div>::1</div></td></tr><tr><td><div>127.0.1.1</div></td></tr><tr><td><div>::ffff:127.0.0.1</div></td></tr><tr><td><div>127.0.0.1</div></td></tr></table></div></td></tr><tr><td style="font-weight:bold;vertical-align:top;">web2py_version</td><td style="vertical-align:top;">:</td><td><div>2.14.3-stable+timestamp.2016.03.26.23.02.02</div></td></tr></table></div></td></tr><tr><td style="font-weight:bold;vertical-align:top;">is_https</td><td style="vertical-align:top;">:</td><td><div>False</div></td></tr><tr><td style="font-weight:bold;vertical-align:top;">is_local</td><td style="vertical-align:top;">:</td><td><div>True</div></td></tr><tr><td style="font-weight:bold;vertical-align:top;">is_restful</td><td style="vertical-align:top;">:</td><td><div>False</div></td></tr><tr><td style="font-weight:bold;vertical-align:top;">is_scheduler</td><td style="vertical-align:top;">:</td><td><div>False</div></td></tr><tr><td style="font-weight:bold;vertical-align:top;">is_shell</td><td style="vertical-align:top;">:</td><td><div>False</div></td></tr><tr><td style="font-weight:bold;vertical-align:top;">now</td><td style="vertical-align:top;">:</td><td><div>datetime.datetime(2016, 4, 28, 15, 53, 6, 230522)</div></td></tr><tr><td style="font-weight:bold;vertical-align:top;">raw_args</td><td style="vertical-align:top;">:</td><td><div></div></td></tr><tr><td style="font-weight:bold;vertical-align:top;">raw_extension</td><td style="vertical-align:top;">:</td><td><div>None</div></td></tr><tr><td style="font-weight:bold;vertical-align:top;">url</td><td style="vertical-align:top;">:</td><td><div>/NotesKeeper3/default/my_notes</div></td></tr><tr><td style="font-weight:bold;vertical-align:top;">utcnow</td><td style="vertical-align:top;">:</td><td><div>datetime.datetime(2016, 4, 28, 10, 23, 6, 230577)</div></td></tr><tr><td style="font-weight:bold;vertical-align:top;">wsgi</td><td style="vertical-align:top;">:</td><td><div>&lt;gluon.main.LazyWSGI object at 0x7f1f7ae88ed0&gt;</div></td></tr></table></div>'
tRp58
sS'frames'
p59
(lp60
(dp61
S'file'
p62
S'/home/pearlstud/web2py/gluon/restricted.py'
p63
sS'dump'
p64
(dp65
S'environment'
p66
S"{'A': <class 'gluon.html.A'>, 'ANY_OF': <class 'gluon.validators.ANY_OF'>, 'ASSIGNJS': <function ASSIGNJS>, 'AppConfig': <function AppConfig>, 'Auth': <class 'gluon.tools.Auth'>, 'B': <class 'gluon.html.B'>, 'BEAUTIFY': <class 'gluon.html.BEAUTIFY'>, 'BODY': <class 'gluon.html.BODY'>, 'BR': <class 'gluon.html.BR'>, 'BUTTON': <class 'gluon.html.BUTTON'>, ...}"
p67
sS'ccode'
p68
S'<code object <module> at 0x7f1f7aeceeb0, file "/...otesKeeper3/views/default/my_notes.html", line 1>'
p69
ssS'lnum'
p70
I227
sS'lines'
p71
(dp72
I224
S'            ccode = code'
p73
sI225
S'        else:'
p74
sI226
S'            ccode = compile2(code, layer)'
p75
sI227
S'        exec ccode in environment'
p76
sI228
S'    except HTTP:'
p77
sI229
S'        raise'
p78
sI230
S'    except RestrictedError:'
p79
sI231
S'        # do not encapsulate (obfuscate) the original RestrictedError'
p80
sI222
S'    try:'
p81
sI223
S'        if isinstance(code, types.CodeType):'
p82
ssS'call'
p83
S'(code=r"response.write(\'<!DOCTYPE HTML>\\r\\n<html>\\r\\n\\t<...>\\r\\n\\r\\n\\t</body>\\r\\n</html>\\r\\n\', escape=False)", environment={\'A\': <class \'gluon.html.A\'>, \'ANY_OF\': <class \'gluon.validators.ANY_OF\'>, \'ASSIGNJS\': <function ASSIGNJS>, \'AppConfig\': <function AppConfig>, \'Auth\': <class \'gluon.tools.Auth\'>, \'B\': <class \'gluon.html.B\'>, \'BEAUTIFY\': <class \'gluon.html.BEAUTIFY\'>, \'BODY\': <class \'gluon.html.BODY\'>, \'BR\': <class \'gluon.html.BR\'>, \'BUTTON\': <class \'gluon.html.BUTTON\'>, ...}, layer=\'/home/pearlstud/web2py/applications/NotesKeeper3/views/default/my_notes.html\')'
p84
sS'func'
p85
S'restricted'
p86
sa(dp87
g62
S'/home/pearlstud/web2py/applications/NotesKeeper3/views/default/my_notes.html'
p88
sg64
(dp89
S'Notes'
p90
S'undefined'
p91
sS'My'
p92
g91
sS'title'
p93
g91
ssg70
I4
sg71
(dp94
I1
S'response.write(\'<!DOCTYPE HTML>\\r\\n<html>\\r\\n\\t<head>\\r\\n\\t\\t<title>My Notes</title>\\r\\n\\t\\t<meta http-equiv="content-type" content="text/html; charset=utf-8" />\\r\\n\\t\\t<meta name="description" content="" />\\r\\n\\t\\t<meta name="keywords" content="" />\\r\\n\\t\\t<script src="js/jquery.min.js"></script>\\r\\n\\t\\t<script src="js/jquery.dropotron.min.js"></script>\\r\\n\\t\\t<script src="js/skel.min.js"></script>\\r\\n\\t\\t<script src="js/skel-layers.min.js"></script>\\r\\n\\t\\t<script src="js/init.js"></script>\\r\\n\\t\\t<noscript>\\r\\n\\t\\t\\t<link rel="stylesheet" href="css/skel.css" />\\r\\n\\t\\t\\t<link rel="stylesheet" href="css/style.css" />\\r\\n\\t\\t\\t<link rel="stylesheet" href="css/style-wide.css" />\\r\\n\\t\\t</noscript>\\r\\n\\t</head>\\r\\n\\t<body>\\r\\n\\t\\t\\t<div class="wrapper style1">\\r\\n\\t\\t\\t\\t\\t<div id="header" class="skel-panels-fixed">\\r\\n\\t\\t\\t\\t\\t\\t<div id="logo">\\r\\n\\t\\t\\t\\t\\t\\t\\t<h1><a href="index.html">My Notes</a></h1>\\r\\n\\t\\t\\t\\t\\t\\t\\t<span class="tag">by NotesKeeper</span>\\r\\n\\t\\t\\t\\t\\t\\t</div>\\r\\n\\t\\t\\t\\t\\t\\t<nav id="nav">\\r\\n\\t\\t\\t\\t\\t\\t\\t<ul>\\r\\n\\t\\t\\t\\t\\t\\t\\t\\t<li class="active"><a href="index.html">Homepage</a></li>\\r\\n\\t\\t\\t\\t\\t\\t\\t\\t<li><a href="#">IDK</a></li>\\r\\n\\t\\t\\t\\t\\t\\t\\t\\t<li><a href="#">IDK</a></li>\\r\\n\\t\\t\\t\\t\\t\\t\\t\\t<li><a href="#">IDK</a></li>\\r\\n\\t\\t\\t\\t\\t\\t\\t</ul>\\r\\n\\t\\t\\t\\t\\t\\t</nav>\\r\\n\\t\\t\\t\\t\\t</div>\\r\\n\\t\\t\\t\\t\\t<div id="banner" class="container">\\r\\n\\t\\t\\t\\t\\t\\t<section>\\r\\n\\t\\t\\t\\t\\t\\t\\t<p>This is <strong>My Notes</strong>, section. More text needed.</p>\\r\\n\\t\\t\\t\\t\\t\\t</section>\\r\\n\\t\\t\\t\\t\\t</div>\\r\\n\\t\\t\\t\\t\\t<div id="extra">\\r\\n\\t\\t\\t\\t\\t\\t<div class="container">\\r\\n\\t\\t\\t\\t\\t\\t\\t<div class="row no-collapse-1">\\r\\n\\t\\t\\t\\t\\t\\t\\t\\t\', escape=False)'
p95
sI2
S'for nt in notes:'
p96
sI3
S'    response.write(\'\\r\\n\\t\\t\\t\\t\\t\\t\\t\\t<section class="4u"> <a href="#" class="image featured"><img src="images/pic0\', escape=False)'
p97
sI4
S'    ++i'
p98
sI5
S'    response.write(\'.jpg" alt=""></a>\\r\\n\\t\\t\\t\\t\\t\\t\\t\\t\\t<div class="box">\\r\\n\\t\\t\\t\\t\\t\\t\\t\\t\\t\\t<p>nt.title</p>\\r\\n\\t\\t\\t\\t\\t\\t\\t\\t\\t\\t<a href="\', escape=False)'
p99
sI6
S"    response.write(URL('show_note', args = nt.id))"
p100
sI7
S'    response.write(\'" class="button">Read More</a> </div>\\r\\n\\t\\t\\t\\t\\t\\t\\t\\t</section>\\r\\n\\t\\t\\t\\t\\t\\t\\t\\t\', escape=False)'
p101
sI8
S'    pass'
p102
sI9
S'response.write(\'\\r\\n\\t\\t\\t\\t\\t\\t\\t</div>\\r\\n\\t\\t\\t\\t\\t\\t</div>\\r\\n\\t\\t\\t\\t\\t</div>\\r\\n\\t\\t\\t\\t</div>\\r\\n\\t\\t<div id="copyright">\\r\\n\\t\\t\\t<div class="container">\\r\\n\\t\\t\\t\\t<div class="copyright">\\r\\n\\t\\t\\t\\t\\t<p>Design: <a href="#">NotesKeeper</a> </p>\\r\\n\\t\\t\\t\\t\\t<ul class="icons">\\r\\n\\t\\t\\t\\t\\t\\t<li><a href="#" class="fa fa-facebook"><span>Facebook</span></a></li>\\r\\n\\t\\t\\t\\t\\t\\t<li><a href="#" class="fa fa-twitter"><span>Twitter</span></a></li>\\r\\n\\t\\t\\t\\t\\t\\t<li><a href="#" class="fa fa-google-plus"><span>Google+</span></a></li>\\r\\n\\t\\t\\t\\t\\t</ul>\\r\\n\\t\\t\\t\\t</div>\\r\\n\\t\\t\\t</div>\\r\\n\\t\\t</div>\\r\\n\\r\\n\\t</body>\\r\\n</html>\\r\\n\', escape=False)'
p103
ssg83
S'()'
p104
sg85
S'<module>'
p105
sasS'pyver'
p106
S'Python 2.7.10: /usr/bin/python (prefix: /usr)'
p107
sS'session'
p108
g57
(S's\xe7\x08\x00\x00<div><table><tr><td style="font-weight:bold;vertical-align:top;">auth</td><td style="vertical-align:top;">:</td><td><div><table><tr><td style="font-weight:bold;vertical-align:top;">expiration</td><td style="vertical-align:top;">:</td><td><div>3600</div></td></tr><tr><td style="font-weight:bold;vertical-align:top;">hmac_key</td><td style="vertical-align:top;">:</td><td><div>314360f2-ffc8-4b35-8f47-3c1f12e3d5b6</div></td></tr><tr><td style="font-weight:bold;vertical-align:top;">last_visit</td><td style="vertical-align:top;">:</td><td><div>datetime.datetime(2016, 4, 28, 15, 51, 47, 189180)</div></td></tr><tr><td style="font-weight:bold;vertical-align:top;">remember_me</td><td style="vertical-align:top;">:</td><td><div>False</div></td></tr><tr><td style="font-weight:bold;vertical-align:top;">user</td><td style="vertical-align:top;">:</td><td><div><table><tr><td style="font-weight:bold;vertical-align:top;">email</td><td style="vertical-align:top;">:</td><td><div>moinmoti@gmail.com</div></td></tr><tr><td style="font-weight:bold;vertical-align:top;">first_name</td><td style="vertical-align:top;">:</td><td><div>Moin</div></td></tr><tr><td style="font-weight:bold;vertical-align:top;">id</td><td style="vertical-align:top;">:</td><td><div>1L</div></td></tr><tr><td style="font-weight:bold;vertical-align:top;">last_name</td><td style="vertical-align:top;">:</td><td><div>Moti</div></td></tr><tr><td style="font-weight:bold;vertical-align:top;">registration_id</td><td style="vertical-align:top;">:</td><td><div></div></td></tr><tr><td style="font-weight:bold;vertical-align:top;">registration_key</td><td style="vertical-align:top;">:</td><td><div></div></td></tr><tr><td style="font-weight:bold;vertical-align:top;">reset_password_key</td><td style="vertical-align:top;">:</td><td><div></div></td></tr></table></div></td></tr><tr><td style="font-weight:bold;vertical-align:top;">user_groups</td><td style="vertical-align:top;">:</td><td><div><table><tr><td style="font-weight:bold;vertical-align:top;">1</td><td style="vertical-align:top;">:</td><td><div>user_1</div></td></tr></table></div></td></tr></table></div></td></tr><tr><td style="font-weight:bold;vertical-align:top;">flash</td><td style="vertical-align:top;">:</td><td><div>None</div></td></tr></table></div>'
tRp109
sS'etype'
p110
S"<type 'exceptions.NameError'>"
p111
sS'date'
p112
S'Thu Apr 28 15:53:06 2016'
p113
sS'response'
p114
g57
(S'sm \x00\x00<div><table><tr><td style="font-weight:bold;vertical-align:top;">body</td><td style="vertical-align:top;">:</td><td><div>&lt;cStringIO.StringO object at 0x7f1f7aec1650&gt;</div></td></tr><tr><td style="font-weight:bold;vertical-align:top;">cookies</td><td style="vertical-align:top;">:</td><td><div><table><tr><td style="font-weight:bold;vertical-align:top;">session_id_noteskeeper3</td><td style="vertical-align:top;">:</td><td><div>127.0.0.1-a43521c3-9dcb-419a-b495-9bfee828f2fe<table><tr><td style="font-weight:bold;vertical-align:top;">comment</td><td style="vertical-align:top;">:</td><td><div></div></td></tr><tr><td style="font-weight:bold;vertical-align:top;">domain</td><td style="vertical-align:top;">:</td><td><div></div></td></tr><tr><td style="font-weight:bold;vertical-align:top;">expires</td><td style="vertical-align:top;">:</td><td><div></div></td></tr><tr><td style="font-weight:bold;vertical-align:top;">httponly</td><td style="vertical-align:top;">:</td><td><div></div></td></tr><tr><td style="font-weight:bold;vertical-align:top;">max-age</td><td style="vertical-align:top;">:</td><td><div></div></td></tr><tr><td style="font-weight:bold;vertical-align:top;">path</td><td style="vertical-align:top;">:</td><td><div>/</div></td></tr><tr><td style="font-weight:bold;vertical-align:top;">secure</td><td style="vertical-align:top;">:</td><td><div></div></td></tr><tr><td style="font-weight:bold;vertical-align:top;">version</td><td style="vertical-align:top;">:</td><td><div></div></td></tr></table></div></td></tr></table></div></td></tr><tr><td style="font-weight:bold;vertical-align:top;">delimiters</td><td style="vertical-align:top;">:</td><td><div><table><tr><td><div>{{</div></td></tr><tr><td><div>}}</div></td></tr></table></div></td></tr><tr><td style="font-weight:bold;vertical-align:top;">files</td><td style="vertical-align:top;">:</td><td><div><table></table></div></td></tr><tr><td style="font-weight:bold;vertical-align:top;">flash</td><td style="vertical-align:top;">:</td><td><div></div></td></tr><tr><td style="font-weight:bold;vertical-align:top;">form_label_separator</td><td style="vertical-align:top;">:</td><td><div></div></td></tr><tr><td style="font-weight:bold;vertical-align:top;">formstyle</td><td style="vertical-align:top;">:</td><td><div>bootstrap3_inline</div></td></tr><tr><td style="font-weight:bold;vertical-align:top;">generic_patterns</td><td style="vertical-align:top;">:</td><td><div><table><tr><td><div>*</div></td></tr></table></div></td></tr><tr><td style="font-weight:bold;vertical-align:top;">google_analytics_id</td><td style="vertical-align:top;">:</td><td><div>None</div></td></tr><tr><td style="font-weight:bold;vertical-align:top;">headers</td><td style="vertical-align:top;">:</td><td><div><table><tr><td style="font-weight:bold;vertical-align:top;">X-Powered-By</td><td style="vertical-align:top;">:</td><td><div>web2py</div></td></tr></table></div></td></tr><tr><td style="font-weight:bold;vertical-align:top;">logo</td><td style="vertical-align:top;">:</td><td><div><a class="navbar-brand" id="web2py-logo"><b>NotesKeeper</b>&trade;&nbsp;</a></div></td></tr><tr><td style="font-weight:bold;vertical-align:top;">menu</td><td style="vertical-align:top;">:</td><td><div><table><tr><td><div><table><tr><td><div>Home</div></td></tr><tr><td><div>False</div></td></tr><tr><td><div>/NotesKeeper3/default/index</div></td></tr><tr><td><div><table></table></div></td></tr></table></div></td></tr><tr><td><div><table><tr><td><div>My Notes</div></td></tr><tr><td><div>False</div></td></tr><tr><td><div>/NotesKeeper3/default/my_notes</div></td></tr><tr><td><div><table></table></div></td></tr></table></div></td></tr><tr><td><div><table><tr><td><div>Add Note</div></td></tr><tr><td><div>False</div></td></tr><tr><td><div>/NotesKeeper3/default/add_note</div></td></tr><tr><td><div><table></table></div></td></tr></table></div></td></tr><tr><td><div><table><tr><td><div>Add Label</div></td></tr><tr><td><div>False</div></td></tr><tr><td><div>/NotesKeeper3/default/add_label</div></td></tr><tr><td><div><table></table></div></td></tr></table></div></td></tr><tr><td><div><table><tr><td><div>Shared Notes</div></td></tr><tr><td><div>False</div></td></tr><tr><td><div>/NotesKeeper3/default/shared_notes</div></td></tr></table></div></td></tr></table></div></td></tr><tr><td style="font-weight:bold;vertical-align:top;">meta</td><td style="vertical-align:top;">:</td><td><div><table><tr><td style="font-weight:bold;vertical-align:top;">author</td><td style="vertical-align:top;">:</td><td><div>Your Name &lt;you@example.com&gt;</div></td></tr><tr><td style="font-weight:bold;vertical-align:top;">description</td><td style="vertical-align:top;">:</td><td><div>a cool new app</div></td></tr><tr><td style="font-weight:bold;vertical-align:top;">generator</td><td style="vertical-align:top;">:</td><td><div>Web2py Web Framework</div></td></tr><tr><td style="font-weight:bold;vertical-align:top;">keywords</td><td style="vertical-align:top;">:</td><td><div>web2py, python, framework</div></td></tr></table></div></td></tr><tr><td style="font-weight:bold;vertical-align:top;">models_to_run</td><td style="vertical-align:top;">:</td><td><div><table><tr><td><div>^\\w+\\.py$</div></td></tr><tr><td><div>^default/\\w+\\.py$</div></td></tr><tr><td><div>^default/my_notes/\\w+\\.py$</div></td></tr></table></div></td></tr><tr><td style="font-weight:bold;vertical-align:top;">postprocessing</td><td style="vertical-align:top;">:</td><td><div><table></table></div></td></tr><tr><td style="font-weight:bold;vertical-align:top;">session_client</td><td style="vertical-align:top;">:</td><td><div>127.0.0.1</div></td></tr><tr><td style="font-weight:bold;vertical-align:top;">session_cookie_compression_level</td><td style="vertical-align:top;">:</td><td><div>None</div></td></tr><tr><td style="font-weight:bold;vertical-align:top;">session_cookie_expires</td><td style="vertical-align:top;">:</td><td><div>None</div></td></tr><tr><td style="font-weight:bold;vertical-align:top;">session_data_name</td><td style="vertical-align:top;">:</td><td><div>session_data_noteskeeper3</div></td></tr><tr><td style="font-weight:bold;vertical-align:top;">session_file</td><td style="vertical-align:top;">:</td><td><div>&lt;open file &#x27;/home/pearlstud/web2py/applications/NotesKeeper3/sessions/08e/120/127.0.0.1-a43521c3-9dcb-419a-b495-9bfee828f2fe&#x27;, mode &#x27;rb+&#x27; at 0x7f1fb015e930&gt;</div></td></tr><tr><td style="font-weight:bold;vertical-align:top;">session_filename</td><td style="vertical-align:top;">:</td><td><div>/home/pearlstud/web2py/applications/NotesKeeper3/sessions/127.0.0.1-a43521c3-9dcb-419a-b495-9bfee828f2fe</div></td></tr><tr><td style="font-weight:bold;vertical-align:top;">session_hash</td><td style="vertical-align:top;">:</td><td><div>d8de22ef352e5c25b76f3d8b477d2724</div></td></tr><tr><td style="font-weight:bold;vertical-align:top;">session_id</td><td style="vertical-align:top;">:</td><td><div>127.0.0.1-a43521c3-9dcb-419a-b495-9bfee828f2fe</div></td></tr><tr><td style="font-weight:bold;vertical-align:top;">session_id_name</td><td style="vertical-align:top;">:</td><td><div>session_id_noteskeeper3</div></td></tr><tr><td style="font-weight:bold;vertical-align:top;">session_locked</td><td style="vertical-align:top;">:</td><td><div>True</div></td></tr><tr><td style="font-weight:bold;vertical-align:top;">session_masterapp</td><td style="vertical-align:top;">:</td><td><div>NotesKeeper3</div></td></tr><tr><td style="font-weight:bold;vertical-align:top;">session_new</td><td style="vertical-align:top;">:</td><td><div>False</div></td></tr><tr><td style="font-weight:bold;vertical-align:top;">session_storage_type</td><td style="vertical-align:top;">:</td><td><div>file</div></td></tr><tr><td style="font-weight:bold;vertical-align:top;">status</td><td style="vertical-align:top;">:</td><td><div>200</div></td></tr><tr><td style="font-weight:bold;vertical-align:top;">subtitle</td><td style="vertical-align:top;">:</td><td><div></div></td></tr><tr><td style="font-weight:bold;vertical-align:top;">title</td><td style="vertical-align:top;">:</td><td><div>Noteskeeper3</div></td></tr><tr><td style="font-weight:bold;vertical-align:top;">view</td><td style="vertical-align:top;">:</td><td><div>default/my_notes.html</div></td></tr></table></div>'
tRp115
sS'locals'
p116
(dp117
S'Service'
p118
S"<class 'gluon.tools.Service'>"
p119
sS'OBJECT'
p120
S"<class 'gluon.html.OBJECT'>"
p121
sS'SQLDB'
p122
S"<class 'pydal.base.DAL'>"
p123
sg108
S"<Storage {'auth': <Storage {'remember_me': False...gin]': ['a4b2171e-3eeb-484d-9616-f3f0a9e0611e']}>"
p124
sS'LINK'
p125
S"<class 'gluon.html.LINK'>"
p126
sS'BR'
p127
S"<class 'gluon.html.BR'>"
p128
sS'local_import'
p129
S'<function <lambda>>'
p130
sS'OPTGROUP'
p131
S"<class 'gluon.html.OPTGROUP'>"
p132
sS'__package__'
p133
S'None'
p134
sS'PRE'
p135
S"<class 'gluon.html.PRE'>"
p136
sS'IS_INT_IN_RANGE'
p137
S"<class 'gluon.validators.IS_INT_IN_RANGE'>"
p138
sS'IS_LOWER'
p139
S"<class 'gluon.validators.IS_LOWER'>"
p140
sS'IS_STRONG'
p141
S"<class 'gluon.validators.IS_STRONG'>"
p142
sS'cache'
p143
S'<gluon.cache.Cache object>'
p144
sS'IS_IN_DB'
p145
S"<class 'gluon.validators.IS_IN_DB'>"
p146
sS'TAG'
p147
S'<gluon.html.__TAG__ object>'
p148
sS'SQLField'
p149
S"<class 'pydal.objects.Field'>"
p150
sS'mail'
p151
S'<gluon.tools.Mail object>'
p152
sS'BODY'
p153
S"<class 'gluon.html.BODY'>"
p154
sS'IS_DATE_IN_RANGE'
p155
S"<class 'gluon.validators.IS_DATE_IN_RANGE'>"
p156
sS'IFRAME'
p157
S"<class 'gluon.html.IFRAME'>"
p158
sS'URL'
p159
S'<function URL>'
p160
sS'__file__'
p161
S"'/home/pearlstud/web2py/applications/NotesKeeper3/views/default/my_notes.html'"
p162
sS'db'
p163
S'<DAL uri="sqlite://storage.sqlite">'
p164
sS'auth'
p165
S'<gluon.tools.Auth object>'
p166
sS'P'
S"<class 'gluon.html.P'>"
p167
sS'TFOOT'
p168
S"<class 'gluon.html.TFOOT'>"
p169
sS'XHTML'
p170
S"<class 'gluon.html.XHTML'>"
p171
sS'ON'
p172
S'True'
p173
sS'OL'
p174
S"<class 'gluon.html.OL'>"
p175
sS'TEXTAREA'
p176
S"<class 'gluon.html.TEXTAREA'>"
p177
sS'MENU'
p178
S"<class 'gluon.html.MENU'>"
p179
sS'notes'
p180
S'<Rows (2)>'
p181
sS'IS_IMAGE'
p182
S"<class 'gluon.validators.IS_IMAGE'>"
p183
sS'EM'
p184
S"<class 'gluon.html.EM'>"
p185
sS'CODE'
p186
S"<class 'gluon.html.CODE'>"
p187
sS'HTTP'
p188
S"<class 'gluon.http.HTTP'>"
p189
sS'HR'
p190
S"<class 'gluon.html.HR'>"
p191
sS'IS_DATETIME'
p192
S"<class 'gluon.validators.IS_DATETIME'>"
p193
sS'STYLE'
p194
S"<class 'gluon.html.STYLE'>"
p195
sS'LABEL'
p196
S"<class 'gluon.html.LABEL'>"
p197
sS'CLEANUP'
p198
S"<class 'gluon.validators.CLEANUP'>"
p199
sS'plugins'
p200
S'<gluon.tools.PluginManager object>'
p201
sS'SELECT'
p202
S"<class 'gluon.html.SELECT'>"
p203
sS'CENTER'
p204
S"<class 'gluon.html.CENTER'>"
p205
sS'Auth'
p206
S"<class 'gluon.tools.Auth'>"
p207
sS'DEVELOPMENT_MENU'
p208
g173
sS'__builtins__'
p209
S"{'ArithmeticError': <type 'exceptions.ArithmeticError'>, 'AssertionError': <type 'exceptions.AssertionError'>, 'AttributeError': <type 'exceptions.AttributeError'>, 'BaseException': <type 'exceptions.BaseException'>, 'BufferError': <type 'exceptions.BufferError'>, 'BytesWarning': <type 'exceptions.BytesWarning'>, 'DeprecationWarning': <type 'exceptions.DeprecationWarning'>, 'EOFError': <type 'exceptions.EOFError'>, 'Ellipsis': Ellipsis, 'EnvironmentError': <type 'exceptions.EnvironmentError'>, ...}"
p210
sS'HTML'
p211
S"<class 'gluon.html.HTML'>"
p212
sS'SQLFORM'
p213
S"<class 'gluon.sqlhtml.SQLFORM'>"
p214
sS'LOAD'
p215
S'<function LOAD>'
p216
sS'redirect'
p217
S'<function redirect>'
p218
sS'FIELDSET'
p219
S"<class 'gluon.html.FIELDSET'>"
p220
sS'IS_EQUAL_TO'
p221
S"<class 'gluon.validators.IS_EQUAL_TO'>"
p222
sS'embed64'
p223
S'<function embed64>'
p224
sS'IS_LIST_OF'
p225
S"<class 'gluon.validators.IS_LIST_OF'>"
p226
sS'INPUT'
p227
S"<class 'gluon.html.INPUT'>"
p228
sS'EMBED'
p229
S"<class 'gluon.html.EMBED'>"
p230
sS'_'
S'<function _>'
p231
sS'myconf'
p232
S"{'forms': {'formstyle': 'bootstrap3_inline', 'se...': {'names': 'localhost:*, 127.0.0.1:*, *:*, *'}}"
p233
sS'H2'
p234
S"<class 'gluon.html.H2'>"
p235
sS'H3'
p236
S"<class 'gluon.html.H3'>"
p237
sS'AppConfig'
p238
S'<function AppConfig>'
p239
sS'H1'
p240
S"<class 'gluon.html.H1'>"
p241
sS'H6'
p242
S"<class 'gluon.html.H6'>"
p243
sS'H4'
p244
S"<class 'gluon.html.H4'>"
p245
sS'H5'
p246
S"<class 'gluon.html.H5'>"
p247
sS'UL'
p248
S"<class 'gluon.html.UL'>"
p249
sS'IS_UPPER'
p250
S"<class 'gluon.validators.IS_UPPER'>"
p251
sS'xmlescape'
p252
S'<function xmlescape>'
p253
sS'IS_TIME'
p254
S"<class 'gluon.validators.IS_TIME'>"
p255
sS'OPTION'
p256
S"<class 'gluon.html.OPTION'>"
p257
sS'TITLE'
p258
S"<class 'gluon.html.TITLE'>"
p259
sS'CRYPT'
p260
S"<class 'gluon.validators.CRYPT'>"
p261
sS'IS_EMPTY_OR'
p262
S"<class 'gluon.validators.IS_EMPTY_OR'>"
p263
sS'MARKMIN'
p264
S"<class 'gluon.html.MARKMIN'>"
p265
sS'__name__'
p266
S"'__restricted__'"
p267
sS'STRONG'
p268
S"<class 'gluon.html.STRONG'>"
p269
sS'COL'
p270
S"<class 'gluon.html.COL'>"
p271
sS'service'
p272
S'<gluon.tools.Service object>'
p273
sS'SCRIPT'
p274
S"<class 'gluon.html.SCRIPT'>"
p275
sS'TABLE'
p276
S"<class 'gluon.html.TABLE'>"
p277
sS'IS_IPV4'
p278
S"<class 'gluon.validators.IS_IPV4'>"
p279
sS'IS_LENGTH'
p280
S"<class 'gluon.validators.IS_LENGTH'>"
p281
sS'IS_IPV6'
p282
S"<class 'gluon.validators.IS_IPV6'>"
p283
sS'XML'
p284
S"<class 'gluon.html.XML'>"
p285
sS'B'
S"<class 'gluon.html.B'>"
p286
sS'IMG'
p287
S"<class 'gluon.html.IMG'>"
p288
sS'SQLTABLE'
p289
S"<class 'gluon.sqlhtml.SQLTABLE'>"
p290
sS'IS_MATCH'
p291
S"<class 'gluon.validators.IS_MATCH'>"
p292
sS'IS_ALPHANUMERIC'
p293
S"<class 'gluon.validators.IS_ALPHANUMERIC'>"
p294
sS'SPAN'
p295
S"<class 'gluon.html.SPAN'>"
p296
sS'IS_JSON'
p297
S"<class 'gluon.validators.IS_JSON'>"
p298
sS'IS_IPADDRESS'
p299
S"<class 'gluon.validators.IS_IPADDRESS'>"
p300
sS'IS_SLUG'
p301
S"<class 'gluon.validators.IS_SLUG'>"
p302
sS'BEAUTIFY'
p303
S"<class 'gluon.html.BEAUTIFY'>"
p304
sS'META'
p305
S"<class 'gluon.html.META'>"
p306
sS'IS_URL'
p307
S"<class 'gluon.validators.IS_URL'>"
p308
sS'BUTTON'
p309
S"<class 'gluon.html.BUTTON'>"
p310
sS'IS_DATE'
p311
S"<class 'gluon.validators.IS_DATE'>"
p312
sS'IS_EMAIL'
p313
S"<class 'gluon.validators.IS_EMAIL'>"
p314
sS'IS_NOT_EMPTY'
p315
S"<class 'gluon.validators.IS_NOT_EMPTY'>"
p316
sS'IS_FLOAT_IN_RANGE'
p317
S"<class 'gluon.validators.IS_FLOAT_IN_RANGE'>"
p318
sS'TBODY'
p319
S"<class 'gluon.html.TBODY'>"
p320
sS'CAT'
p321
S"<class 'gluon.html.CAT'>"
p322
sS'Field'
p323
S"<class 'pydal.objects.Field'>"
p324
sS'IS_LIST_OF_EMAILS'
p325
S"<class 'gluon.validators.IS_LIST_OF_EMAILS'>"
p326
sS'DIV'
p327
S"<class 'gluon.html.DIV'>"
p328
sS'LEGEND'
p329
S"<class 'gluon.html.LEGEND'>"
p330
sS'COLGROUP'
p331
S"<class 'gluon.html.COLGROUP'>"
p332
sS'DAL'
p333
S"<class 'pydal.base.DAL'>"
p334
sS'ASSIGNJS'
p335
S'<function ASSIGNJS>'
p336
sS'TR'
p337
S"<class 'gluon.html.TR'>"
p338
sS'LI'
p339
S"<class 'gluon.html.LI'>"
p340
sS'TH'
p341
S"<class 'gluon.html.TH'>"
p342
sS'TD'
p343
S"<class 'gluon.html.TD'>"
p344
sS'PluginManager'
p345
S"<class 'gluon.tools.PluginManager'>"
p346
sS'nt'
p347
S"<Row {'body': 'Lorem Ips', 'share_note': <Set (s...time.datetime(2016, 4, 19, 18, 5, 20), 'id': 3L}>"
p348
sS'A'
S"<class 'gluon.html.A'>"
p349
sS'HEAD'
p350
S"<class 'gluon.html.HEAD'>"
p351
sS'IS_DATETIME_IN_RANGE'
p352
S"<class 'gluon.validators.IS_DATETIME_IN_RANGE'>"
p353
sS'FORM'
p354
S"<class 'gluon.html.FORM'>"
p355
sS'I'
S"<class 'gluon.html.I'>"
p356
sS'IS_NOT_IN_DB'
p357
S"<class 'gluon.validators.IS_NOT_IN_DB'>"
p358
sg114
S"<Storage {'body': <cStringIO.StringO object at 0...x7f1f7aed1cf8>, 'view': 'default/my_notes.html'}>"
p359
sS'THEAD'
p360
S"<class 'gluon.html.THEAD'>"
p361
sS'ANY_OF'
p362
S"<class 'gluon.validators.ANY_OF'>"
p363
sS'IS_NULL_OR'
p364
S"<class 'gluon.validators.IS_EMPTY_OR'>"
p365
sg56
S"<Storage {'_vars': None, 'function': 'my_notes',...me/pearlstud/web2py/applications/NotesKeeper3/'}>"
p366
sS'IS_EXPR'
p367
S"<class 'gluon.validators.IS_EXPR'>"
p368
sS'T'
S'<gluon.languages.translator object>'
p369
sS'IS_IN_SET'
p370
S"<class 'gluon.validators.IS_IN_SET'>"
p371
sS'IS_UPLOAD_FILENAME'
p372
S"<class 'gluon.validators.IS_UPLOAD_FILENAME'>"
p373
sS'TT'
p374
S"<class 'gluon.html.TT'>"
p375
sS'IS_DECIMAL_IN_RANGE'
p376
S"<class 'gluon.validators.IS_DECIMAL_IN_RANGE'>"
p377
sssS'traceback'
p378
S'Traceback (most recent call last):\n  File "/home/pearlstud/web2py/gluon/restricted.py", line 227, in restricted\n    exec ccode in environment\n  File "/home/pearlstud/web2py/applications/NotesKeeper3/views/default/my_notes.html", line 4, in <module>\n    <title>My Notes</title>\nNameError: name \'i\' is not defined\n'
p379
s.